(dp1
I0
I514
sI1
I515
sI2
I516
sI3
I22
sI4
I523
sI5
I524
sI6
I175
sI7
I526
sI8
I527
sI9
I144
sI10
I18
sI11
I148
sI12
I150
sI13
I23
sI14
I24
sI15
I25
sI16
I26
sI17
I155
sI18
I156
sI19
I157
sI20
I158
sI21
I31
sI22
I32
sI23
I33
sI24
I34
sI25
I163
sI26
I36
sI27
I37
sI28
I167
sI29
I168
sI30
I169
sI31
I170
sI32
I171
sI33
I172
sI34
I173
sI35
I174
sI36
I29
sI37
I176
sI38
I177
sI39
I179
sI40
I30
sI41
I162
sI42
I525
sI43
I164
sI44
I165
sI45
I39
s.