(dp1
I514
I0
sI515
I1
sI516
I2
sI22
I3
sI523
I4
sI524
I5
sI525
I42
sI526
I7
sI527
I8
sI144
I9
sI18
I10
sI148
I11
sI150
I12
sI23
I13
sI24
I14
sI25
I15
sI26
I16
sI155
I17
sI156
I18
sI157
I19
sI158
I20
sI31
I21
sI32
I22
sI33
I23
sI34
I24
sI163
I25
sI36
I26
sI37
I27
sI167
I28
sI168
I29
sI169
I30
sI170
I31
sI171
I32
sI172
I33
sI173
I34
sI174
I35
sI175
I6
sI176
I37
sI177
I38
sI179
I39
sI30
I40
sI162
I41
sI164
I43
sI165
I44
sI39
I45
sI29
I36
s.